; Function Attrs: mustprogress uwtable
define noundef nonnull ptr @_ZN5faiss21read_ProductQuantizerEPNS_8IOReaderE(ptr noundef %0) local_unnamed_addr #3 personality ptr @__gxx_personality_v0 {
  %2 = tail call noalias noundef nonnull dereferenceable(216) ptr @_Znwm(i64 noundef 216) #32
  invoke void @_ZN5faiss16ProductQuantizerC1Ev(ptr noundef nonnull align 8 dereferenceable(216) %2)
          to label %3 unwind label %4

3:                                                ; preds = %1
  invoke void @_ZN5faiss21read_ProductQuantizerEPNS_16ProductQuantizerEPNS_8IOReaderE(ptr noundef nonnull %2, ptr noundef %0)
          to label %_ZNSt10unique_ptrIN5faiss16ProductQuantizerESt14default_deleteIS1_EED2Ev.exit unwind label %_ZNSt10unique_ptrIN5faiss16ProductQuantizerESt14default_deleteIS1_EED2Ev.exit9

_ZNSt10unique_ptrIN5faiss16ProductQuantizerESt14default_deleteIS1_EED2Ev.exit: ; preds = %3
  ret ptr %2

4:                                                ; preds = %1
  %5 = landingpad { ptr, i32 }
          cleanup
  tail call void @_ZdlPvm(ptr noundef nonnull %2, i64 noundef 216) #30
  br label %10

_ZNSt10unique_ptrIN5faiss16ProductQuantizerESt14default_deleteIS1_EED2Ev.exit9: ; preds = %3
  %6 = landingpad { ptr, i32 }
          cleanup
  %7 = load ptr, ptr %2, align 8, !tbaa !4
  %8 = getelementptr inbounds nuw i8, ptr %7, i64 32
  %9 = load ptr, ptr %8, align 8
  tail call void %9(ptr noundef nonnull align 8 dereferenceable(216) %2) #27
  br label %10

10:                                               ; preds = %_ZNSt10unique_ptrIN5faiss16ProductQuantizerESt14default_deleteIS1_EED2Ev.exit9, %4
  %.pn = phi { ptr, i32 } [ %6, %_ZNSt10unique_ptrIN5faiss16ProductQuantizerESt14default_deleteIS1_EED2Ev.exit9 ], [ %5, %4 ]
  resume { ptr, i32 } %.pn
}